; Function Attrs: mustprogress uwtable
define hidden noundef ptr @pj_wag1(ptr noundef %0) local_unnamed_addr #0 {
  %.not = icmp eq ptr %0, null
  br i1 %.not, label %13, label %2

2:                                                ; preds = %1
  %3 = tail call noalias dereferenceable_or_null(16) ptr @calloc(i64 noundef 1, i64 noundef 16) #4
  %4 = icmp eq ptr %3, null
  br i1 %4, label %5, label %7

5:                                                ; preds = %2
  %6 = tail call noundef ptr @_Z21pj_default_destructorP8PJconstsi(ptr noundef nonnull %0, i32 noundef 4096)
  br label %_Z33pj_projection_specific_setup_wag1P8PJconsts.exit

7:                                                ; preds = %2
  %8 = getelementptr inbounds nuw i8, ptr %0, i64 88
  store ptr %3, ptr %8, align 8, !tbaa !40
  store double 0x3FEBB67AE8584CAA, ptr %3, align 8, !tbaa !43
  %9 = getelementptr inbounds nuw i8, ptr %3, i64 8
  store double 0x3FF50EA39FCBE980, ptr %9, align 8, !tbaa !45
  %10 = getelementptr inbounds nuw i8, ptr %0, i64 216
  store double 0.000000e+00, ptr %10, align 8, !tbaa !46
  %11 = getelementptr inbounds nuw i8, ptr %0, i64 112
  store ptr @_ZL16urmfps_s_inverse5PJ_XYP8PJconsts, ptr %11, align 8, !tbaa !47
  %12 = getelementptr inbounds nuw i8, ptr %0, i64 104
  store ptr @_ZL16urmfps_s_forward5PJ_LPP8PJconsts, ptr %12, align 8, !tbaa !48
  br label %_Z33pj_projection_specific_setup_wag1P8PJconsts.exit

13:                                               ; preds = %1
  %14 = tail call noundef ptr @_Z6pj_newv()
  %15 = icmp eq ptr %14, null
  br i1 %15, label %_Z33pj_projection_specific_setup_wag1P8PJconsts.exit, label %16

16:                                               ; preds = %13
  %17 = getelementptr inbounds nuw i8, ptr %14, i64 8
  store ptr @.str.5, ptr %17, align 8, !tbaa !3
  %18 = getelementptr inbounds nuw i8, ptr %14, i64 16
  store ptr @_ZL8des_wag1, ptr %18, align 8, !tbaa !36
  %19 = getelementptr inbounds nuw i8, ptr %14, i64 360
  store i32 1, ptr %19, align 8, !tbaa !37
  %20 = getelementptr inbounds nuw i8, ptr %14, i64 380
  store i32 4, ptr %20, align 4, !tbaa !38
  %21 = getelementptr inbounds nuw i8, ptr %14, i64 384
  store i32 1, ptr %21, align 8, !tbaa !39
  br label %_Z33pj_projection_specific_setup_wag1P8PJconsts.exit

_Z33pj_projection_specific_setup_wag1P8PJconsts.exit: ; preds = %7, %5, %13, %16
  %.0 = phi ptr [ %14, %16 ], [ null, %13 ], [ %6, %5 ], [ %0, %7 ]
  ret ptr %.0
}